target datalayout = "e-m:e-p270:32:32-p271:32:32-p272:64:64-i64:64-i128:128-f80:128-n8:16:32:64-S128"
target triple = "x86_64-pc-linux-gnu"

%struct._value_string = type { i32, ptr }
%struct._packet_info = type { ptr, ptr, i32, i32, %struct.nstime_t, %struct.nstime_t, %struct.nstime_t, i8, ptr, ptr, ptr, ptr, %struct._address, %struct._address, %struct._address, %struct._address, %struct._address, %struct._address, i32, ptr, i8, [3 x i8], %struct.anon, i32, i32, i32, i32, ptr, i8, ptr, ptr, i16, i16, i32, i32, i16, i32, i32, ptr, ptr, ptr, i8, i8, i16, i16, i16, i32, i16, i16, ptr, ptr, ptr, ptr, ptr, i32, i32 }
%struct.nstime_t = type { i64, i32 }
%struct._address = type { i32, i32, ptr, ptr }
%struct.anon = type { i8, [3 x i8] }

@hf_cba_acco_count = internal global i32 0, align 4
@hf_cba_getprovconnout = internal global i32 0, align 4
@hf_cba_acco_conn_cons_id = internal global i32 0, align 4
@hf_cba_acco_conn_consumer = internal global i32 0, align 4
@hf_cba_acco_conn_qos_type = internal global i32 0, align 4
@hf_cba_acco_conn_qos_value = internal global i32 0, align 4
@hf_cba_acco_conn_state = internal global i32 0, align 4
@hf_cba_acco_conn_provider_item = internal global i32 0, align 4
@hf_cba_acco_conn_epsilon = internal global i32 0, align 4
@ett_cba_getprovconnout = hidden global i32 0, align 4
@dcom_hresult_vals = external constant [0 x %struct._value_string], align 8
@.str.259 = private unnamed_addr constant [17 x i8] c"Unknown (0x%08x)\00", align 1
@.str.261 = private unnamed_addr constant [7 x i8] c" -> %s\00", align 1
@.str.269 = private unnamed_addr constant [9 x i8] c"[%u]: %s\00", align 1

; Function Attrs: null_pointer_is_valid sspstrong uwtable
define internal i32 @dissect_Server_GetProvConnections_resp(ptr noundef %0, i32 noundef %1, ptr noundef %2, ptr noundef %3, ptr noundef %4, ptr noundef %5) #0 {
  %7 = alloca ptr, align 8
  %8 = alloca i32, align 4
  %9 = alloca ptr, align 8
  %10 = alloca ptr, align 8
  %11 = alloca ptr, align 8
  %12 = alloca ptr, align 8
  %13 = alloca i32, align 4
  %14 = alloca i32, align 4
  %15 = alloca i32, align 4
  %16 = alloca i32, align 4
  %17 = alloca i32, align 4
  %18 = alloca i32, align 4
  %19 = alloca [1000 x i8], align 16
  %20 = alloca i32, align 4
  %21 = alloca [1000 x i8], align 16
  %22 = alloca i32, align 4
  %23 = alloca i32, align 4
  %24 = alloca i16, align 2
  %25 = alloca i16, align 2
  %26 = alloca i8, align 1
  %27 = alloca i32, align 4
  %28 = alloca ptr, align 8
  %29 = alloca ptr, align 8
  store ptr %0, ptr %7, align 8
  store i32 %1, ptr %8, align 4
  store ptr %2, ptr %9, align 8
  store ptr %3, ptr %10, align 8
  store ptr %4, ptr %11, align 8
  store ptr %5, ptr %12, align 8
  call void @llvm.lifetime.start.p0(i64 4, ptr %13) #12
  call void @llvm.lifetime.start.p0(i64 4, ptr %14) #12
  call void @llvm.lifetime.start.p0(i64 4, ptr %15) #12
  call void @llvm.lifetime.start.p0(i64 4, ptr %16) #12
  call void @llvm.lifetime.start.p0(i64 4, ptr %17) #12
  call void @llvm.lifetime.start.p0(i64 4, ptr %18) #12
  call void @llvm.lifetime.start.p0(i64 1000, ptr %19) #12
  call void @llvm.memset.p0.i64(ptr align 16 %19, i8 0, i64 1000, i1 false)
  call void @llvm.lifetime.start.p0(i64 4, ptr %20) #12
  store i32 1000, ptr %20, align 4
  call void @llvm.lifetime.start.p0(i64 1000, ptr %21) #12
  call void @llvm.memset.p0.i64(ptr align 16 %21, i8 0, i64 1000, i1 false)
  call void @llvm.lifetime.start.p0(i64 4, ptr %22) #12
  store i32 1000, ptr %22, align 4
  call void @llvm.lifetime.start.p0(i64 4, ptr %23) #12
  call void @llvm.lifetime.start.p0(i64 2, ptr %24) #12
  call void @llvm.lifetime.start.p0(i64 2, ptr %25) #12
  call void @llvm.lifetime.start.p0(i64 1, ptr %26) #12
  call void @llvm.lifetime.start.p0(i64 4, ptr %27) #12
  %30 = load ptr, ptr %7, align 8
  %31 = load i32, ptr %8, align 4
  %32 = load ptr, ptr %9, align 8
  %33 = load ptr, ptr %10, align 8
  %34 = load ptr, ptr %11, align 8
  %35 = load ptr, ptr %12, align 8
  %36 = call i32 @dissect_dcom_that(ptr noundef %30, i32 noundef %31, ptr noundef %32, ptr noundef %33, ptr noundef %34, ptr noundef %35)
  store i32 %36, ptr %8, align 4
  %37 = load ptr, ptr %7, align 8
  %38 = load i32, ptr %8, align 4
  %39 = load ptr, ptr %9, align 8
  %40 = load ptr, ptr %10, align 8
  %41 = load ptr, ptr %11, align 8
  %42 = load ptr, ptr %12, align 8
  %43 = call i32 @dissect_dcom_dcerpc_pointer(ptr noundef %37, i32 noundef %38, ptr noundef %39, ptr noundef %40, ptr noundef %41, ptr noundef %42, ptr noundef %15)
  store i32 %43, ptr %8, align 4
  %44 = load i32, ptr %8, align 4
  store i32 %44, ptr %16, align 4
  %45 = load i32, ptr %15, align 4
  %46 = icmp ne i32 %45, 0
  br i1 %46, label %47, label %187

47:                                               ; preds = %6
  %48 = load ptr, ptr %7, align 8
  %49 = load i32, ptr %8, align 4
  %50 = load ptr, ptr %9, align 8
  %51 = load ptr, ptr %10, align 8
  %52 = load ptr, ptr %11, align 8
  %53 = load ptr, ptr %12, align 8
  %54 = load i32, ptr @hf_cba_acco_count, align 4
  %55 = call i32 @dissect_ndr_uint32(ptr noundef %48, i32 noundef %49, ptr noundef %50, ptr noundef %51, ptr noundef %52, ptr noundef %53, i32 noundef %54, ptr noundef %13)
  store i32 %55, ptr %8, align 4
  %56 = load i32, ptr %8, align 4
  %57 = load i32, ptr %13, align 4
  %58 = mul i32 %57, 28
  %59 = add i32 %56, %58
  store i32 %59, ptr %16, align 4
  %60 = load i32, ptr %13, align 4
  store i32 %60, ptr %14, align 4
  store i32 1, ptr %17, align 4
  br label %61

61:                                               ; preds = %143, %47
  %62 = load i32, ptr %14, align 4
  %63 = add i32 %62, -1
  store i32 %63, ptr %14, align 4
  %64 = icmp ne i32 %62, 0
  br i1 %64, label %65, label %186

65:                                               ; preds = %61
  call void @llvm.lifetime.start.p0(i64 8, ptr %28) #12
  call void @llvm.lifetime.start.p0(i64 8, ptr %29) #12
  %66 = load ptr, ptr %10, align 8
  %67 = load i32, ptr @hf_cba_getprovconnout, align 4
  %68 = load ptr, ptr %7, align 8
  %69 = load i32, ptr %8, align 4
  %70 = call ptr @proto_tree_add_item(ptr noundef %66, i32 noundef %67, ptr noundef %68, i32 noundef %69, i32 noundef 0, i32 noundef 0)
  store ptr %70, ptr %28, align 8
  %71 = load ptr, ptr %28, align 8
  %72 = load i32, ptr @ett_cba_getprovconnout, align 4
  %73 = call ptr @proto_item_add_subtree(ptr noundef %71, i32 noundef %72)
  store ptr %73, ptr %29, align 8
  %74 = load i32, ptr %8, align 4
  store i32 %74, ptr %18, align 4
  %75 = load ptr, ptr %7, align 8
  %76 = load i32, ptr %8, align 4
  %77 = load ptr, ptr %9, align 8
  %78 = load ptr, ptr %29, align 8
  %79 = load ptr, ptr %11, align 8
  %80 = load ptr, ptr %12, align 8
  %81 = call i32 @dissect_dcom_dcerpc_pointer(ptr noundef %75, i32 noundef %76, ptr noundef %77, ptr noundef %78, ptr noundef %79, ptr noundef %80, ptr noundef %15)
  store i32 %81, ptr %8, align 4
  %82 = load i32, ptr %15, align 4
  %83 = icmp ne i32 %82, 0
  br i1 %83, label %84, label %95

84:                                               ; preds = %65
  %85 = load ptr, ptr %7, align 8
  %86 = load i32, ptr %16, align 4
  %87 = load ptr, ptr %9, align 8
  %88 = load ptr, ptr %29, align 8
  %89 = load ptr, ptr %11, align 8
  %90 = load ptr, ptr %12, align 8
  %91 = load i32, ptr @hf_cba_acco_conn_consumer, align 4
  %92 = getelementptr inbounds [1000 x i8], ptr %19, i64 0, i64 0
  %93 = load i32, ptr %20, align 4
  %94 = call i32 @dissect_dcom_LPWSTR(ptr noundef %85, i32 noundef %86, ptr noundef %87, ptr noundef %88, ptr noundef %89, ptr noundef %90, i32 noundef %91, ptr noundef %92, i32 noundef %93)
  store i32 %94, ptr %16, align 4
  br label %95

95:                                               ; preds = %84, %65
  %96 = load ptr, ptr %7, align 8
  %97 = load i32, ptr %8, align 4
  %98 = load ptr, ptr %9, align 8
  %99 = load ptr, ptr %29, align 8
  %100 = load ptr, ptr %11, align 8
  %101 = load ptr, ptr %12, align 8
  %102 = call i32 @dissect_dcom_dcerpc_pointer(ptr noundef %96, i32 noundef %97, ptr noundef %98, ptr noundef %99, ptr noundef %100, ptr noundef %101, ptr noundef %15)
  store i32 %102, ptr %8, align 4
  %103 = load i32, ptr %15, align 4
  %104 = icmp ne i32 %103, 0
  br i1 %104, label %105, label %116

105:                                              ; preds = %95
  %106 = load ptr, ptr %7, align 8
  %107 = load i32, ptr %16, align 4
  %108 = load ptr, ptr %9, align 8
  %109 = load ptr, ptr %29, align 8
  %110 = load ptr, ptr %11, align 8
  %111 = load ptr, ptr %12, align 8
  %112 = load i32, ptr @hf_cba_acco_conn_provider_item, align 4
  %113 = getelementptr inbounds [1000 x i8], ptr %21, i64 0, i64 0
  %114 = load i32, ptr %22, align 4
  %115 = call i32 @dissect_dcom_LPWSTR(ptr noundef %106, i32 noundef %107, ptr noundef %108, ptr noundef %109, ptr noundef %110, ptr noundef %111, i32 noundef %112, ptr noundef %113, i32 noundef %114)
  store i32 %115, ptr %16, align 4
  br label %116

116:                                              ; preds = %105, %95
  %117 = load ptr, ptr %7, align 8
  %118 = load i32, ptr %8, align 4
  %119 = load ptr, ptr %9, align 8
  %120 = load ptr, ptr %29, align 8
  %121 = load ptr, ptr %11, align 8
  %122 = load ptr, ptr %12, align 8
  %123 = load i32, ptr @hf_cba_acco_conn_cons_id, align 4
  %124 = call i32 @dissect_ndr_uint32(ptr noundef %117, i32 noundef %118, ptr noundef %119, ptr noundef %120, ptr noundef %121, ptr noundef %122, i32 noundef %123, ptr noundef %23)
  store i32 %124, ptr %8, align 4
  %125 = load ptr, ptr %7, align 8
  %126 = load i32, ptr %8, align 4
  %127 = load ptr, ptr %9, align 8
  %128 = load ptr, ptr %29, align 8
  %129 = load ptr, ptr %11, align 8
  %130 = load ptr, ptr %12, align 8
  %131 = call i32 @dissect_dcom_dcerpc_pointer(ptr noundef %125, i32 noundef %126, ptr noundef %127, ptr noundef %128, ptr noundef %129, ptr noundef %130, ptr noundef %15)
  store i32 %131, ptr %8, align 4
  %132 = load i32, ptr %15, align 4
  %133 = icmp ne i32 %132, 0
  br i1 %133, label %134, label %143

134:                                              ; preds = %116
  %135 = load ptr, ptr %7, align 8
  %136 = load i32, ptr %16, align 4
  %137 = load ptr, ptr %9, align 8
  %138 = load ptr, ptr %29, align 8
  %139 = load ptr, ptr %11, align 8
  %140 = load ptr, ptr %12, align 8
  %141 = load i32, ptr @hf_cba_acco_conn_epsilon, align 4
  %142 = call i32 @dissect_dcom_VARIANT(ptr noundef %135, i32 noundef %136, ptr noundef %137, ptr noundef %138, ptr noundef %139, ptr noundef %140, i32 noundef %141)
  store i32 %142, ptr %16, align 4
  br label %143

143:                                              ; preds = %134, %116
  %144 = load ptr, ptr %7, align 8
  %145 = load i32, ptr %8, align 4
  %146 = load ptr, ptr %9, align 8
  %147 = load ptr, ptr %29, align 8
  %148 = load ptr, ptr %11, align 8
  %149 = load ptr, ptr %12, align 8
  %150 = load i32, ptr @hf_cba_acco_conn_qos_type, align 4
  %151 = call i32 @dissect_ndr_uint16(ptr noundef %144, i32 noundef %145, ptr noundef %146, ptr noundef %147, ptr noundef %148, ptr noundef %149, i32 noundef %150, ptr noundef %24)
  store i32 %151, ptr %8, align 4
  %152 = load ptr, ptr %7, align 8
  %153 = load i32, ptr %8, align 4
  %154 = load ptr, ptr %9, align 8
  %155 = load ptr, ptr %29, align 8
  %156 = load ptr, ptr %11, align 8
  %157 = load ptr, ptr %12, align 8
  %158 = load i32, ptr @hf_cba_acco_conn_qos_value, align 4
  %159 = call i32 @dissect_ndr_uint16(ptr noundef %152, i32 noundef %153, ptr noundef %154, ptr noundef %155, ptr noundef %156, ptr noundef %157, i32 noundef %158, ptr noundef %25)
  store i32 %159, ptr %8, align 4
  %160 = load ptr, ptr %7, align 8
  %161 = load i32, ptr %8, align 4
  %162 = load ptr, ptr %9, align 8
  %163 = load ptr, ptr %29, align 8
  %164 = load ptr, ptr %11, align 8
  %165 = load ptr, ptr %12, align 8
  %166 = load i32, ptr @hf_cba_acco_conn_state, align 4
  %167 = call i32 @dissect_ndr_uint8(ptr noundef %160, i32 noundef %161, ptr noundef %162, ptr noundef %163, ptr noundef %164, ptr noundef %165, i32 noundef %166, ptr noundef %26)
  store i32 %167, ptr %8, align 4
  %168 = load ptr, ptr %7, align 8
  %169 = load i32, ptr %8, align 4
  %170 = load ptr, ptr %9, align 8
  %171 = load ptr, ptr %29, align 8
  %172 = load ptr, ptr %11, align 8
  %173 = load ptr, ptr %12, align 8
  %174 = load i32, ptr %17, align 4
  %175 = call i32 @dissect_dcom_indexed_HRESULT(ptr noundef %168, i32 noundef %169, ptr noundef %170, ptr noundef %171, ptr noundef %172, ptr noundef %173, ptr noundef %27, i32 noundef %174)
  store i32 %175, ptr %8, align 4
  %176 = load ptr, ptr %28, align 8
  %177 = load i32, ptr %17, align 4
  %178 = load i32, ptr %27, align 4
  %179 = call ptr @val_to_str(i32 noundef %178, ptr noundef @dcom_hresult_vals, ptr noundef @.str.259)
  call void (ptr, ptr, ...) @proto_item_append_text(ptr noundef %176, ptr noundef @.str.269, i32 noundef %177, ptr noundef %179)
  %180 = load ptr, ptr %28, align 8
  %181 = load i32, ptr %8, align 4
  %182 = load i32, ptr %18, align 4
  %183 = sub i32 %181, %182
  call void @proto_item_set_len(ptr noundef %180, i32 noundef %183)
  %184 = load i32, ptr %17, align 4
  %185 = add i32 %184, 1
  store i32 %185, ptr %17, align 4
  call void @llvm.lifetime.end.p0(i64 8, ptr %29) #12
  call void @llvm.lifetime.end.p0(i64 8, ptr %28) #12
  br label %61, !llvm.loop !24

186:                                              ; preds = %61
  br label %187

187:                                              ; preds = %186, %6
  %188 = load ptr, ptr %7, align 8
  %189 = load i32, ptr %16, align 4
  %190 = load ptr, ptr %9, align 8
  %191 = load ptr, ptr %10, align 8
  %192 = load ptr, ptr %11, align 8
  %193 = load ptr, ptr %12, align 8
  %194 = call i32 @dissect_dcom_HRESULT(ptr noundef %188, i32 noundef %189, ptr noundef %190, ptr noundef %191, ptr noundef %192, ptr noundef %193, ptr noundef %27)
  store i32 %194, ptr %16, align 4
  %195 = load ptr, ptr %9, align 8
  %196 = getelementptr inbounds nuw %struct._packet_info, ptr %195, i32 0, i32 1
  %197 = load ptr, ptr %196, align 8
  %198 = load i32, ptr %27, align 4
  %199 = call ptr @val_to_str(i32 noundef %198, ptr noundef @dcom_hresult_vals, ptr noundef @.str.259)
  call void (ptr, i32, ptr, ...) @col_append_fstr(ptr noundef %197, i32 noundef 25, ptr noundef @.str.261, ptr noundef %199)
  %200 = load i32, ptr %16, align 4
  call void @llvm.lifetime.end.p0(i64 4, ptr %27) #12
  call void @llvm.lifetime.end.p0(i64 1, ptr %26) #12
  call void @llvm.lifetime.end.p0(i64 2, ptr %25) #12
  call void @llvm.lifetime.end.p0(i64 2, ptr %24) #12
  call void @llvm.lifetime.end.p0(i64 4, ptr %23) #12
  call void @llvm.lifetime.end.p0(i64 4, ptr %22) #12
  call void @llvm.lifetime.end.p0(i64 1000, ptr %21) #12
  call void @llvm.lifetime.end.p0(i64 4, ptr %20) #12
  call void @llvm.lifetime.end.p0(i64 1000, ptr %19) #12
  call void @llvm.lifetime.end.p0(i64 4, ptr %18) #12
  call void @llvm.lifetime.end.p0(i64 4, ptr %17) #12
  call void @llvm.lifetime.end.p0(i64 4, ptr %16) #12
  call void @llvm.lifetime.end.p0(i64 4, ptr %15) #12
  call void @llvm.lifetime.end.p0(i64 4, ptr %14) #12
  call void @llvm.lifetime.end.p0(i64 4, ptr %13) #12
  ret i32 %200
}