; Function Attrs: null_pointer_is_valid sspstrong uwtable
define internal i32 @dissect_Server_GetProvConnections_resp(ptr noundef %0, i32 noundef %1, ptr noundef %2, ptr noundef %3, ptr noundef %4, ptr noundef %5) #0 {
  %7 = alloca i32, align 4
  %8 = alloca i32, align 4
  %9 = alloca [1000 x i8], align 16
  %10 = alloca [1000 x i8], align 16
  %11 = alloca i32, align 4
  %12 = alloca i16, align 2
  %13 = alloca i16, align 2
  %14 = alloca i8, align 1
  %15 = alloca i32, align 4
  call void @llvm.lifetime.start.p0(i64 4, ptr nonnull %7) #12
  call void @llvm.lifetime.start.p0(i64 4, ptr nonnull %8) #12
  call void @llvm.lifetime.start.p0(i64 1000, ptr nonnull %9) #12
  call void @llvm.memset.p0.i64(ptr noundef nonnull align 16 dereferenceable(1000) %9, i8 0, i64 1000, i1 false)
  call void @llvm.lifetime.start.p0(i64 1000, ptr nonnull %10) #12
  call void @llvm.memset.p0.i64(ptr noundef nonnull align 16 dereferenceable(1000) %10, i8 0, i64 1000, i1 false)
  call void @llvm.lifetime.start.p0(i64 4, ptr nonnull %11) #12
  call void @llvm.lifetime.start.p0(i64 2, ptr nonnull %12) #12
  call void @llvm.lifetime.start.p0(i64 2, ptr nonnull %13) #12
  call void @llvm.lifetime.start.p0(i64 1, ptr nonnull %14) #12
  call void @llvm.lifetime.start.p0(i64 4, ptr nonnull %15) #12
  %16 = tail call i32 @dissect_dcom_that(ptr noundef %0, i32 noundef %1, ptr noundef %2, ptr noundef %3, ptr noundef %4, ptr noundef %5)
  %17 = call i32 @dissect_dcom_dcerpc_pointer(ptr noundef %0, i32 noundef %16, ptr noundef %2, ptr noundef %3, ptr noundef %4, ptr noundef %5, ptr noundef nonnull %8)
  %18 = load i32, ptr %8, align 4
  %.not = icmp eq i32 %18, 0
  br i1 %.not, label %.loopexit, label %19

19:                                               ; preds = %6
  %20 = load i32, ptr @hf_cba_acco_count, align 4
  %21 = call i32 @dissect_ndr_uint32(ptr noundef %0, i32 noundef %17, ptr noundef %2, ptr noundef %3, ptr noundef %4, ptr noundef %5, i32 noundef %20, ptr noundef nonnull %7)
  %22 = load i32, ptr %7, align 4
  %23 = mul i32 %22, 28
  %24 = add i32 %23, %21
  %.not111115 = icmp eq i32 %22, 0
  br i1 %.not111115, label %.loopexit, label %.lr.ph

.lr.ph:                                           ; preds = %19, %49
  %.in = phi i32 [ %25, %49 ], [ %22, %19 ]
  %.0118 = phi i32 [ %56, %49 ], [ %21, %19 ]
  %.1117 = phi i32 [ %.4, %49 ], [ %24, %19 ]
  %.0110116 = phi i32 [ %60, %49 ], [ 1, %19 ]
  %25 = add i32 %.in, -1
  %26 = load i32, ptr @hf_cba_getprovconnout, align 4
  %27 = call ptr @proto_tree_add_item(ptr noundef %3, i32 noundef %26, ptr noundef %0, i32 noundef %.0118, i32 noundef 0, i32 noundef 0)
  %28 = load i32, ptr @ett_cba_getprovconnout, align 4
  %29 = call ptr @proto_item_add_subtree(ptr noundef %27, i32 noundef %28)
  %30 = call i32 @dissect_dcom_dcerpc_pointer(ptr noundef %0, i32 noundef %.0118, ptr noundef %2, ptr noundef %29, ptr noundef %4, ptr noundef %5, ptr noundef nonnull %8)
  %31 = load i32, ptr %8, align 4
  %.not112 = icmp eq i32 %31, 0
  br i1 %.not112, label %35, label %32

32:                                               ; preds = %.lr.ph
  %33 = load i32, ptr @hf_cba_acco_conn_consumer, align 4
  %34 = call i32 @dissect_dcom_LPWSTR(ptr noundef %0, i32 noundef %.1117, ptr noundef %2, ptr noundef %29, ptr noundef %4, ptr noundef %5, i32 noundef %33, ptr noundef nonnull %9, i32 noundef 1000)
  br label %35

35:                                               ; preds = %32, %.lr.ph
  %.2 = phi i32 [ %34, %32 ], [ %.1117, %.lr.ph ]
  %36 = call i32 @dissect_dcom_dcerpc_pointer(ptr noundef %0, i32 noundef %30, ptr noundef %2, ptr noundef %29, ptr noundef %4, ptr noundef %5, ptr noundef nonnull %8)
  %37 = load i32, ptr %8, align 4
  %.not113 = icmp eq i32 %37, 0
  br i1 %.not113, label %41, label %38

38:                                               ; preds = %35
  %39 = load i32, ptr @hf_cba_acco_conn_provider_item, align 4
  %40 = call i32 @dissect_dcom_LPWSTR(ptr noundef %0, i32 noundef %.2, ptr noundef %2, ptr noundef %29, ptr noundef %4, ptr noundef %5, i32 noundef %39, ptr noundef nonnull %10, i32 noundef 1000)
  br label %41

41:                                               ; preds = %38, %35
  %.3 = phi i32 [ %40, %38 ], [ %.2, %35 ]
  %42 = load i32, ptr @hf_cba_acco_conn_cons_id, align 4
  %43 = call i32 @dissect_ndr_uint32(ptr noundef %0, i32 noundef %36, ptr noundef %2, ptr noundef %29, ptr noundef %4, ptr noundef %5, i32 noundef %42, ptr noundef nonnull %11)
  %44 = call i32 @dissect_dcom_dcerpc_pointer(ptr noundef %0, i32 noundef %43, ptr noundef %2, ptr noundef %29, ptr noundef %4, ptr noundef %5, ptr noundef nonnull %8)
  %45 = load i32, ptr %8, align 4
  %.not114 = icmp eq i32 %45, 0
  br i1 %.not114, label %49, label %46

46:                                               ; preds = %41
  %47 = load i32, ptr @hf_cba_acco_conn_epsilon, align 4
  %48 = call i32 @dissect_dcom_VARIANT(ptr noundef %0, i32 noundef %.3, ptr noundef %2, ptr noundef %29, ptr noundef %4, ptr noundef %5, i32 noundef %47)
  br label %49

49:                                               ; preds = %46, %41
  %.4 = phi i32 [ %48, %46 ], [ %.3, %41 ]
  %50 = load i32, ptr @hf_cba_acco_conn_qos_type, align 4
  %51 = call i32 @dissect_ndr_uint16(ptr noundef %0, i32 noundef %44, ptr noundef %2, ptr noundef %29, ptr noundef %4, ptr noundef %5, i32 noundef %50, ptr noundef nonnull %12)
  %52 = load i32, ptr @hf_cba_acco_conn_qos_value, align 4
  %53 = call i32 @dissect_ndr_uint16(ptr noundef %0, i32 noundef %51, ptr noundef %2, ptr noundef %29, ptr noundef %4, ptr noundef %5, i32 noundef %52, ptr noundef nonnull %13)
  %54 = load i32, ptr @hf_cba_acco_conn_state, align 4
  %55 = call i32 @dissect_ndr_uint8(ptr noundef %0, i32 noundef %53, ptr noundef %2, ptr noundef %29, ptr noundef %4, ptr noundef %5, i32 noundef %54, ptr noundef nonnull %14)
  %56 = call i32 @dissect_dcom_indexed_HRESULT(ptr noundef %0, i32 noundef %55, ptr noundef %2, ptr noundef %29, ptr noundef %4, ptr noundef %5, ptr noundef nonnull %15, i32 noundef %.0110116)
  %57 = load i32, ptr %15, align 4
  %58 = call ptr @val_to_str(i32 noundef %57, ptr noundef nonnull @dcom_hresult_vals, ptr noundef nonnull @.str.259)
  call void (ptr, ptr, ...) @proto_item_append_text(ptr noundef %27, ptr noundef nonnull @.str.269, i32 noundef %.0110116, ptr noundef %58)
  %59 = sub i32 %56, %.0118
  call void @proto_item_set_len(ptr noundef %27, i32 noundef %59)
  %60 = add i32 %.0110116, 1
  %.not111 = icmp eq i32 %25, 0
  br i1 %.not111, label %.loopexit, label %.lr.ph, !llvm.loop !25

.loopexit:                                        ; preds = %49, %19, %6
  %.0109 = phi i32 [ %17, %6 ], [ %24, %19 ], [ %.4, %49 ]
  %61 = call i32 @dissect_dcom_HRESULT(ptr noundef %0, i32 noundef %.0109, ptr noundef %2, ptr noundef %3, ptr noundef %4, ptr noundef %5, ptr noundef nonnull %15)
  %62 = getelementptr inbounds nuw i8, ptr %2, i64 8
  %63 = load ptr, ptr %62, align 8
  %64 = load i32, ptr %15, align 4
  %65 = call ptr @val_to_str(i32 noundef %64, ptr noundef nonnull @dcom_hresult_vals, ptr noundef nonnull @.str.259)
  call void (ptr, i32, ptr, ...) @col_append_fstr(ptr noundef %63, i32 noundef 25, ptr noundef nonnull @.str.261, ptr noundef %65)
  call void @llvm.lifetime.end.p0(i64 4, ptr nonnull %15) #12
  call void @llvm.lifetime.end.p0(i64 1, ptr nonnull %14) #12
  call void @llvm.lifetime.end.p0(i64 2, ptr nonnull %13) #12
  call void @llvm.lifetime.end.p0(i64 2, ptr nonnull %12) #12
  call void @llvm.lifetime.end.p0(i64 4, ptr nonnull %11) #12
  call void @llvm.lifetime.end.p0(i64 1000, ptr nonnull %10) #12
  call void @llvm.lifetime.end.p0(i64 1000, ptr nonnull %9) #12
  call void @llvm.lifetime.end.p0(i64 4, ptr nonnull %8) #12
  call void @llvm.lifetime.end.p0(i64 4, ptr nonnull %7) #12
  ret i32 %61
}